; Function Attrs: mustprogress uwtable
define hidden noundef ptr @_ZNK7datalog11rel_context16try_get_relationEP9func_decl(ptr noundef nonnull align 8 dereferenceable(432) %this, ptr noundef %pred) unnamed_addr #3 align 2 {
entry:
  %vtable = load ptr, ptr %this, align 8
  %vfn = getelementptr inbounds i8, ptr %vtable, i64 200
  %0 = load ptr, ptr %vfn, align 8
  %call = tail call noundef nonnull align 8 dereferenceable(200) ptr %0(ptr noundef nonnull align 8 dereferenceable(432) %this)
  %call2 = tail call noundef ptr @_ZNK7datalog16relation_manager16try_get_relationEP9func_decl(ptr noundef nonnull align 8 dereferenceable(200) %call, ptr noundef %pred)
  ret ptr %call2
}